target datalayout = "e-m:e-p270:32:32-p271:32:32-p272:64:64-i64:64-i128:128-f80:128-n8:16:32:64-S128"
target triple = "x86_64-unknown-linux-gnu"

%struct.uv_fs_s = type { ptr, i32, [6 x ptr], i32, ptr, ptr, i64, ptr, ptr, %struct.uv_stat_t, ptr, i32, i32, i32, i32, ptr, i64, i32, i32, double, double, %struct.uv__work, [4 x %struct.uv_buf_t] }
%struct.uv_stat_t = type { i64, i64, i64, i64, i64, i64, i64, i64, i64, i64, i64, i64, %struct.uv_timespec_t, %struct.uv_timespec_t, %struct.uv_timespec_t, %struct.uv_timespec_t }
%struct.uv_timespec_t = type { i64, i64 }
%struct.uv__work = type { ptr, ptr, ptr, %struct.uv__queue }
%struct.uv__queue = type { ptr, ptr }
%struct.uv_buf_t = type { ptr, i64 }
%struct.uv_loop_s = type { ptr, i32, %struct.uv__queue, %union.anon, ptr, i32, i64, i32, %struct.uv__queue, %struct.uv__queue, ptr, i32, i32, %struct.uv__queue, %union.pthread_mutex_t, %struct.uv_async_s, %union.pthread_rwlock_t, ptr, %struct.uv__queue, %struct.uv__queue, %struct.uv__queue, %struct.uv__queue, %struct.uv__queue, ptr, %struct.uv__io_s, i32, %struct.anon, i64, i64, [2 x i32], %struct.uv__io_s, %struct.uv_signal_s, i32, %struct.uv__io_s, ptr, i32 }
%union.anon = type { ptr }
%union.pthread_mutex_t = type { %struct.__pthread_mutex_s }
%struct.__pthread_mutex_s = type { i32, i32, i32, i32, i32, i16, i16, %struct.__pthread_internal_list }
%struct.__pthread_internal_list = type { ptr, ptr }
%struct.uv_async_s = type { ptr, ptr, i32, ptr, %struct.uv__queue, %union.anon.0, ptr, i32, ptr, %struct.uv__queue, i32 }
%union.anon.0 = type { [4 x ptr] }
%union.pthread_rwlock_t = type { %struct.__pthread_rwlock_arch_t }
%struct.__pthread_rwlock_arch_t = type { i32, i32, i32, i32, i32, i32, i32, i32, i8, [7 x i8], i64, i32 }
%struct.anon = type { ptr, i32 }
%struct.uv_signal_s = type { ptr, ptr, i32, ptr, %struct.uv__queue, %union.anon.1, ptr, i32, ptr, i32, %struct.anon.2, i32, i32 }
%union.anon.1 = type { [4 x ptr] }
%struct.anon.2 = type { ptr, ptr, ptr, i32 }
%struct.uv__io_s = type { ptr, %struct.uv__queue, %struct.uv__queue, i32, i32, i32 }

; Function Attrs: nounwind uwtable
define i32 @uv_fs_stat(ptr noundef %loop, ptr noundef %req, ptr noundef %path, ptr noundef %cb) #0 {
entry:
  %retval = alloca i32, align 4
  %loop.addr = alloca ptr, align 8
  %req.addr = alloca ptr, align 8
  %path.addr = alloca ptr, align 8
  %cb.addr = alloca ptr, align 8
  store ptr %loop, ptr %loop.addr, align 8
  store ptr %req, ptr %req.addr, align 8
  store ptr %path, ptr %path.addr, align 8
  store ptr %cb, ptr %cb.addr, align 8
  br label %do.body

do.body:                                          ; preds = %entry
  %0 = load ptr, ptr %req.addr, align 8
  %cmp = icmp eq ptr %0, null
  br i1 %cmp, label %if.then, label %if.end

if.then:                                          ; preds = %do.body
  store i32 -22, ptr %retval, align 4
  br label %do.end31

if.end:                                           ; preds = %do.body
  br label %do.body1

do.body1:                                         ; preds = %if.end
  %1 = load ptr, ptr %req.addr, align 8
  %type = getelementptr inbounds %struct.uv_fs_s, ptr %1, i32 0, i32 1
  store i32 6, ptr %type, align 8
  br label %do.end

do.end:                                           ; preds = %do.body1
  %2 = load ptr, ptr %req.addr, align 8
  %fs_type = getelementptr inbounds %struct.uv_fs_s, ptr %2, i32 0, i32 3
  store i32 6, ptr %fs_type, align 8
  %3 = load ptr, ptr %req.addr, align 8
  %result = getelementptr inbounds %struct.uv_fs_s, ptr %3, i32 0, i32 6
  store i64 0, ptr %result, align 8
  %4 = load ptr, ptr %req.addr, align 8
  %ptr = getelementptr inbounds %struct.uv_fs_s, ptr %4, i32 0, i32 7
  store ptr null, ptr %ptr, align 8
  %5 = load ptr, ptr %loop.addr, align 8
  %6 = load ptr, ptr %req.addr, align 8
  %loop2 = getelementptr inbounds %struct.uv_fs_s, ptr %6, i32 0, i32 4
  store ptr %5, ptr %loop2, align 8
  %7 = load ptr, ptr %req.addr, align 8
  %path3 = getelementptr inbounds %struct.uv_fs_s, ptr %7, i32 0, i32 8
  store ptr null, ptr %path3, align 8
  %8 = load ptr, ptr %req.addr, align 8
  %new_path = getelementptr inbounds %struct.uv_fs_s, ptr %8, i32 0, i32 10
  store ptr null, ptr %new_path, align 8
  %9 = load ptr, ptr %req.addr, align 8
  %bufs = getelementptr inbounds %struct.uv_fs_s, ptr %9, i32 0, i32 15
  store ptr null, ptr %bufs, align 8
  %10 = load ptr, ptr %cb.addr, align 8
  %11 = load ptr, ptr %req.addr, align 8
  %cb4 = getelementptr inbounds %struct.uv_fs_s, ptr %11, i32 0, i32 5
  store ptr %10, ptr %cb4, align 8
  br label %do.end5

do.end5:                                          ; preds = %do.end
  br label %do.body6

do.body6:                                         ; preds = %do.end5
  %12 = load ptr, ptr %cb.addr, align 8
  %cmp7 = icmp eq ptr %12, null
  br i1 %cmp7, label %if.then8, label %if.else

if.then8:                                         ; preds = %do.body6
  %13 = load ptr, ptr %path.addr, align 8
  %14 = load ptr, ptr %req.addr, align 8
  %path9 = getelementptr inbounds %struct.uv_fs_s, ptr %14, i32 0, i32 8
  store ptr %13, ptr %path9, align 8
  br label %if.end15

if.else:                                          ; preds = %do.body6
  %15 = load ptr, ptr %path.addr, align 8
  %call = call ptr @uv__strdup(ptr noundef %15)
  %16 = load ptr, ptr %req.addr, align 8
  %path10 = getelementptr inbounds %struct.uv_fs_s, ptr %16, i32 0, i32 8
  store ptr %call, ptr %path10, align 8
  %17 = load ptr, ptr %req.addr, align 8
  %path11 = getelementptr inbounds %struct.uv_fs_s, ptr %17, i32 0, i32 8
  %18 = load ptr, ptr %path11, align 8
  %cmp12 = icmp eq ptr %18, null
  br i1 %cmp12, label %if.then13, label %if.end14

if.then13:                                        ; preds = %if.else
  store i32 -12, ptr %retval, align 4
  br label %do.end31

if.end14:                                         ; preds = %if.else
  br label %if.end15

if.end15:                                         ; preds = %if.end14, %if.then8
  br label %do.end16

do.end16:                                         ; preds = %if.end15
  %19 = load ptr, ptr %cb.addr, align 8
  %cmp17 = icmp ne ptr %19, null
  br i1 %cmp17, label %if.then18, label %if.end22

if.then18:                                        ; preds = %do.end16
  %20 = load ptr, ptr %loop.addr, align 8
  %21 = load ptr, ptr %req.addr, align 8
  %call19 = call i32 @uv__iou_fs_statx(ptr noundef %20, ptr noundef %21, i32 noundef 0, i32 noundef 0)
  %tobool = icmp ne i32 %call19, 0
  br i1 %tobool, label %if.then20, label %if.end21

if.then20:                                        ; preds = %if.then18
  store i32 0, ptr %retval, align 4
  br label %do.end31

if.end21:                                         ; preds = %if.then18
  br label %if.end22

if.end22:                                         ; preds = %if.end21, %do.end16
  br label %do.body23

do.body23:                                        ; preds = %if.end22
  %22 = load ptr, ptr %cb.addr, align 8
  %cmp24 = icmp ne ptr %22, null
  br i1 %cmp24, label %if.then25, label %if.else28

if.then25:                                        ; preds = %do.body23
  br label %do.body26

do.body26:                                        ; preds = %if.then25
  %23 = load ptr, ptr %loop.addr, align 8
  %active_reqs = getelementptr inbounds %struct.uv_loop_s, ptr %23, i32 0, i32 3
  %24 = load i32, ptr %active_reqs, align 8
  %inc = add i32 %24, 1
  store i32 %inc, ptr %active_reqs, align 8
  br label %do.end27

do.end27:                                         ; preds = %do.body26
  %25 = load ptr, ptr %loop.addr, align 8
  %26 = load ptr, ptr %req.addr, align 8
  %work_req = getelementptr inbounds %struct.uv_fs_s, ptr %26, i32 0, i32 21
  call void @uv__work_submit(ptr noundef %25, ptr noundef %work_req, i32 noundef 1, ptr noundef @uv__fs_work, ptr noundef @uv__fs_done)
  store i32 0, ptr %retval, align 4
  br label %do.end31

if.else28:                                        ; preds = %do.body23
  %27 = load ptr, ptr %req.addr, align 8
  %work_req29 = getelementptr inbounds %struct.uv_fs_s, ptr %27, i32 0, i32 21
  call void @uv__fs_work(ptr noundef %work_req29)
  %28 = load ptr, ptr %req.addr, align 8
  %result30 = getelementptr inbounds %struct.uv_fs_s, ptr %28, i32 0, i32 6
  %29 = load i64, ptr %result30, align 8
  %conv = trunc i64 %29 to i32
  store i32 %conv, ptr %retval, align 4
  br label %do.end31

do.end31:                                         ; preds = %if.else28, %do.end27, %if.then20, %if.then13, %if.then
  %30 = load i32, ptr %retval, align 4
  ret i32 %30
}